; Function Attrs: nounwind uwtable
define ptr @l_Lean_Elab_Tactic_setGrindParams(ptr noundef %0, ptr noundef %1) local_unnamed_addr #0 {
  %3 = tail call zeroext i8 @l_Array_isEmpty___rarg(ptr noundef %1) #5
  %4 = icmp eq i8 %3, 0
  br i1 %4, label %5, label %33

5:                                                ; preds = %2
  %6 = load ptr, ptr @l_Lean_Elab_Tactic_setGrindParams___closed__4, align 8, !tbaa !4
  %7 = tail call ptr @l_Lean_Syntax_mkSep(ptr noundef %1, ptr noundef %6) #5
  %8 = load ptr, ptr @l_Lean_Elab_Tactic_setGrindParams___closed__7, align 8, !tbaa !4
  tail call void @lean_inc_heartbeat() #5
  %9 = tail call noalias ptr @mi_malloc_small(i64 noundef 24) #5
  %10 = icmp eq ptr %9, null
  br i1 %10, label %11, label %lean_alloc_ctor.exit

11:                                               ; preds = %5
  tail call void @lean_internal_panic_out_of_memory() #6
  unreachable

lean_alloc_ctor.exit:                             ; preds = %5
  %12 = getelementptr inbounds nuw i8, ptr %9, i64 4
  store i32 1, ptr %9, align 4, !tbaa !8
  store i32 16908312, ptr %12, align 4
  %13 = getelementptr inbounds nuw i8, ptr %9, i64 8
  store ptr %7, ptr %13, align 8, !tbaa !4
  %14 = getelementptr inbounds nuw i8, ptr %9, i64 16
  store ptr %8, ptr %14, align 8, !tbaa !4
  %15 = load ptr, ptr @l_Lean_Elab_Tactic_setGrindParams___closed__2, align 8, !tbaa !4
  tail call void @lean_inc_heartbeat() #5
  %16 = tail call noalias ptr @mi_malloc_small(i64 noundef 24) #5
  %17 = icmp eq ptr %16, null
  br i1 %17, label %18, label %lean_alloc_ctor.exit27

18:                                               ; preds = %lean_alloc_ctor.exit
  tail call void @lean_internal_panic_out_of_memory() #6
  unreachable

lean_alloc_ctor.exit27:                           ; preds = %lean_alloc_ctor.exit
  %19 = getelementptr inbounds nuw i8, ptr %16, i64 4
  store i32 1, ptr %16, align 4, !tbaa !8
  store i32 16908312, ptr %19, align 4
  %20 = getelementptr inbounds nuw i8, ptr %16, i64 8
  store ptr %15, ptr %20, align 8, !tbaa !4
  %21 = getelementptr inbounds nuw i8, ptr %16, i64 16
  store ptr %9, ptr %21, align 8, !tbaa !4
  %22 = tail call ptr @lean_array_mk(ptr noundef nonnull %16) #5
  %23 = load ptr, ptr @l_Lean_Elab_Tactic_setGrindParams___closed__9, align 8, !tbaa !4
  tail call void @lean_inc_heartbeat() #5
  %24 = tail call noalias ptr @mi_malloc_small(i64 noundef 32) #5
  %25 = icmp eq ptr %24, null
  br i1 %25, label %26, label %lean_alloc_ctor.exit28

26:                                               ; preds = %lean_alloc_ctor.exit27
  tail call void @lean_internal_panic_out_of_memory() #6
  unreachable

lean_alloc_ctor.exit28:                           ; preds = %lean_alloc_ctor.exit27
  %27 = getelementptr inbounds nuw i8, ptr %24, i64 4
  store i32 1, ptr %24, align 4, !tbaa !8
  store i32 16973856, ptr %27, align 4
  %28 = getelementptr inbounds nuw i8, ptr %24, i64 8
  store ptr inttoptr (i64 5 to ptr), ptr %28, align 8, !tbaa !4
  %29 = getelementptr inbounds nuw i8, ptr %24, i64 16
  store ptr %23, ptr %29, align 8, !tbaa !4
  %30 = getelementptr inbounds nuw i8, ptr %24, i64 24
  store ptr %22, ptr %30, align 8, !tbaa !4
  %31 = load ptr, ptr @l_Lean_Elab_Tactic_grindParamsPos, align 8, !tbaa !4
  %32 = tail call ptr @l_Lean_Syntax_setArg(ptr noundef %0, ptr noundef %31, ptr noundef nonnull %24) #5
  br label %37

33:                                               ; preds = %2
  %34 = load ptr, ptr @l_Lean_Elab_Tactic_grindParamsPos, align 8, !tbaa !4
  %35 = load ptr, ptr @l_Lean_Elab_Tactic_setGrindParams___closed__10, align 8, !tbaa !4
  %36 = tail call ptr @l_Lean_Syntax_setArg(ptr noundef %0, ptr noundef %34, ptr noundef %35) #5
  br label %37

37:                                               ; preds = %33, %lean_alloc_ctor.exit28
  %.0 = phi ptr [ %32, %lean_alloc_ctor.exit28 ], [ %36, %33 ]
  ret ptr %.0
}